target datalayout = "e-m:e-p270:32:32-p271:32:32-p272:64:64-i64:64-i128:128-f80:128-n8:16:32:64-S128"
target triple = "x86_64-pc-linux-gnu"

; Function Attrs: mustprogress uwtable
define noundef signext i8 @_ZN6icu_7714TimeZoneFormat12toCodePointsERKNS_13UnicodeStringEPii(ptr noundef nonnull align 8 dereferenceable(64) %0, ptr noundef %1, i32 noundef %2) #1 align 2 {
  %4 = alloca i8, align 1
  %5 = alloca ptr, align 8
  %6 = alloca ptr, align 8
  %7 = alloca i32, align 4
  %8 = alloca i32, align 4
  %9 = alloca i32, align 4
  %10 = alloca i32, align 4
  %11 = alloca i32, align 4
  store ptr %0, ptr %5, align 8, !tbaa !33
  store ptr %1, ptr %6, align 8, !tbaa !20
  store i32 %2, ptr %7, align 4, !tbaa !14
  call void @llvm.lifetime.start.p0(i64 4, ptr %8) #15
  %12 = load ptr, ptr %5, align 8, !tbaa !33
  %13 = call noundef i32 @_ZNK6icu_7713UnicodeString11countChar32Eii(ptr noundef nonnull align 8 dereferenceable(64) %12, i32 noundef 0, i32 noundef 2147483647)
  store i32 %13, ptr %8, align 4, !tbaa !14
  %14 = load i32, ptr %8, align 4, !tbaa !14
  %15 = load i32, ptr %7, align 4, !tbaa !14
  %16 = icmp ne i32 %14, %15
  br i1 %16, label %17, label %18

17:                                               ; preds = %3
  store i8 0, ptr %4, align 1
  store i32 1, ptr %9, align 4
  br label %39

18:                                               ; preds = %3
  call void @llvm.lifetime.start.p0(i64 4, ptr %10) #15
  store i32 0, ptr %10, align 4, !tbaa !14
  call void @llvm.lifetime.start.p0(i64 4, ptr %11) #15
  store i32 0, ptr %11, align 4, !tbaa !14
  br label %19

19:                                               ; preds = %35, %18
  %20 = load i32, ptr %10, align 4, !tbaa !14
  %21 = load i32, ptr %7, align 4, !tbaa !14
  %22 = icmp slt i32 %20, %21
  br i1 %22, label %24, label %23

23:                                               ; preds = %19
  store i32 2, ptr %9, align 4
  call void @llvm.lifetime.end.p0(i64 4, ptr %11) #15
  call void @llvm.lifetime.end.p0(i64 4, ptr %10) #15
  br label %38

24:                                               ; preds = %19
  %25 = load ptr, ptr %5, align 8, !tbaa !33
  %26 = load i32, ptr %11, align 4, !tbaa !14
  %27 = call noundef i32 @_ZNK6icu_7713UnicodeString8char32AtEi(ptr noundef nonnull align 8 dereferenceable(64) %25, i32 noundef %26)
  %28 = load ptr, ptr %6, align 8, !tbaa !20
  %29 = load i32, ptr %10, align 4, !tbaa !14
  %30 = sext i32 %29 to i64
  %31 = getelementptr inbounds i32, ptr %28, i64 %30
  store i32 %27, ptr %31, align 4, !tbaa !14
  %32 = load ptr, ptr %5, align 8, !tbaa !33
  %33 = load i32, ptr %11, align 4, !tbaa !14
  %34 = call noundef i32 @_ZNK6icu_7713UnicodeString11moveIndex32Eii(ptr noundef nonnull align 8 dereferenceable(64) %32, i32 noundef %33, i32 noundef 1)
  store i32 %34, ptr %11, align 4, !tbaa !14
  br label %35

35:                                               ; preds = %24
  %36 = load i32, ptr %10, align 4, !tbaa !14
  %37 = add nsw i32 %36, 1
  store i32 %37, ptr %10, align 4, !tbaa !14
  br label %19, !llvm.loop !74

38:                                               ; preds = %23
  store i8 1, ptr %4, align 1
  store i32 1, ptr %9, align 4
  br label %39

39:                                               ; preds = %38, %17
  call void @llvm.lifetime.end.p0(i64 4, ptr %8) #15
  %40 = load i8, ptr %4, align 1
  ret i8 %40
}