; Function Attrs: mustprogress uwtable
define noundef signext range(i8 0, 2) i8 @_ZN6icu_7714TimeZoneFormat12toCodePointsERKNS_13UnicodeStringEPii(ptr noundef nonnull align 8 dereferenceable(64) %0, ptr noundef writeonly captures(none) %1, i32 noundef %2) local_unnamed_addr #1 align 2 {
  %4 = tail call noundef i32 @_ZNK6icu_7713UnicodeString11countChar32Eii(ptr noundef nonnull align 8 dereferenceable(64) %0, i32 noundef 0, i32 noundef 2147483647)
  %.not = icmp eq i32 %4, %2
  br i1 %.not, label %.preheader, label %.loopexit

.preheader:                                       ; preds = %3
  %5 = icmp sgt i32 %2, 0
  br i1 %5, label %.lr.ph.preheader, label %.loopexit

.lr.ph.preheader:                                 ; preds = %.preheader
  %wide.trip.count = zext nneg i32 %2 to i64
  br label %.lr.ph

.lr.ph:                                           ; preds = %.lr.ph.preheader, %.lr.ph
  %indvars.iv = phi i64 [ 0, %.lr.ph.preheader ], [ %indvars.iv.next, %.lr.ph ]
  %.016 = phi i32 [ 0, %.lr.ph.preheader ], [ %8, %.lr.ph ]
  %6 = tail call noundef i32 @_ZNK6icu_7713UnicodeString8char32AtEi(ptr noundef nonnull align 8 dereferenceable(64) %0, i32 noundef %.016)
  %7 = getelementptr inbounds nuw i32, ptr %1, i64 %indvars.iv
  store i32 %6, ptr %7, align 4, !tbaa !12
  %8 = tail call noundef i32 @_ZNK6icu_7713UnicodeString11moveIndex32Eii(ptr noundef nonnull align 8 dereferenceable(64) %0, i32 noundef %.016, i32 noundef 1)
  %indvars.iv.next = add nuw nsw i64 %indvars.iv, 1
  %exitcond.not = icmp eq i64 %indvars.iv.next, %wide.trip.count
  br i1 %exitcond.not, label %.loopexit, label %.lr.ph, !llvm.loop !53

.loopexit:                                        ; preds = %.lr.ph, %.preheader, %3
  %.013 = phi i8 [ 0, %3 ], [ 1, %.preheader ], [ 1, %.lr.ph ]
  ret i8 %.013
}